target datalayout = "e-m:e-p270:32:32-p271:32:32-p272:64:64-i64:64-i128:128-f80:128-n8:16:32:64-S128"
target triple = "x86_64-pc-linux-gnu"

%"struct.c4::yml::Callbacks" = type { ptr, ptr, ptr, ptr }
%"struct.c4::basic_substring.0" = type { ptr, i64 }
%"struct.c4::basic_substring" = type { ptr, i64 }
%"struct.c4::yml::Location" = type { %"struct.c4::yml::LineCol", %"struct.c4::basic_substring.0" }
%"struct.c4::yml::LineCol" = type { i64, i64, i64 }
%"class.c4::yml::Parser" = type { %"struct.c4::yml::ParserOptions", %"struct.c4::basic_substring.0", %"struct.c4::basic_substring", i64, ptr, %"class.c4::yml::detail::stack.5", ptr, i64, i64, %"struct.c4::basic_substring.0", %"struct.c4::basic_substring.0", i64, %"struct.c4::basic_substring.0", i8, i64, %"struct.c4::basic_substring.0", i64, %"struct.c4::basic_substring.0", %"struct.c4::basic_substring", ptr, i64, i64, %"struct.c4::basic_substring.0" }
%"struct.c4::yml::ParserOptions" = type { i32 }
%"class.c4::yml::detail::stack.5" = type { [16 x %"struct.c4::yml::Parser::State"], ptr, i64, i64, %"struct.c4::yml::Callbacks" }
%"struct.c4::yml::Parser::State" = type { i32, i64, i64, %"struct.c4::basic_substring.0", i64, %"struct.c4::yml::Location", %"struct.c4::yml::Parser::LineContents", i64 }
%"struct.c4::yml::Parser::LineContents" = type { %"struct.c4::basic_substring.0", %"struct.c4::basic_substring.0", %"struct.c4::basic_substring.0", i64 }

@.str = private unnamed_addr constant [128 x i8] c"generated/home/dtcxzyw/WorkSpace/Projects/compilers/llvm-opt-benchmark/bench/jsonnet/jsonnet/third_party/rapidyaml/ryml_all.hpp\00", align 1
@__const._ZN2c43yml6Parser18_grow_filter_arenaEm.msg = private unnamed_addr constant [44 x i8] c"check failed: (sz >= num_characters_needed)\00", align 16
@__const._ZN2c43yml6Parser20_resize_filter_arenaEm.msg = private unnamed_addr constant [39 x i8] c"check failed: (m_filter_arena.len > 0)\00", align 16

; Function Attrs: mustprogress nounwind uwtable
define linkonce_odr void @_ZN2c415basic_substringIKcEC2EPS1_m(ptr noundef nonnull align 8 dereferenceable(16) %0, ptr noundef %1, i64 noundef %2) unnamed_addr #0 comdat align 2 {
  %4 = alloca ptr, align 8
  %5 = alloca ptr, align 8
  %6 = alloca i64, align 8
  store ptr %0, ptr %4, align 8, !tbaa !45
  store ptr %1, ptr %5, align 8, !tbaa !20
  store i64 %2, ptr %6, align 8, !tbaa !15
  %7 = load ptr, ptr %4, align 8
  %8 = getelementptr inbounds nuw %"struct.c4::basic_substring.0", ptr %7, i32 0, i32 0
  %9 = load ptr, ptr %5, align 8, !tbaa !20
  store ptr %9, ptr %8, align 8, !tbaa !37
  %10 = getelementptr inbounds nuw %"struct.c4::basic_substring.0", ptr %7, i32 0, i32 1
  %11 = load i64, ptr %6, align 8, !tbaa !15
  store i64 %11, ptr %10, align 8, !tbaa !39
  ret void
}

; Function Attrs: inlinehint mustprogress uwtable
define linkonce_odr { ptr, i64 } @_ZN2c410to_csubstrEPKc(ptr noundef %0) #19 comdat {
  %2 = alloca %"struct.c4::basic_substring.0", align 8
  %3 = alloca ptr, align 8
  store ptr %0, ptr %3, align 8, !tbaa !20
  %4 = load ptr, ptr %3, align 8, !tbaa !20
  %5 = load ptr, ptr %3, align 8, !tbaa !20
  %6 = icmp ne ptr %5, null
  br i1 %6, label %7, label %10

7:                                                ; preds = %1
  %8 = load ptr, ptr %3, align 8, !tbaa !20
  %9 = call i64 @strlen(ptr noundef %8) #26
  br label %11

10:                                               ; preds = %1
  br label %11

11:                                               ; preds = %10, %7
  %12 = phi i64 [ %9, %7 ], [ 0, %10 ]
  call void @_ZN2c415basic_substringIKcEC2EPS1_m(ptr noundef nonnull align 8 dereferenceable(16) %2, ptr noundef %4, i64 noundef %12)
  %13 = load { ptr, i64 }, ptr %2, align 8
  ret { ptr, i64 } %13
}

; Function Attrs: mustprogress nounwind uwtable
define linkonce_odr void @_ZN2c43yml7LineColC2Emmm(ptr noundef nonnull align 8 dereferenceable(24) %0, i64 noundef %1, i64 noundef %2, i64 noundef %3) unnamed_addr #0 comdat align 2 {
  %5 = alloca ptr, align 8
  %6 = alloca i64, align 8
  %7 = alloca i64, align 8
  %8 = alloca i64, align 8
  store ptr %0, ptr %5, align 8, !tbaa !355
  store i64 %1, ptr %6, align 8, !tbaa !15
  store i64 %2, ptr %7, align 8, !tbaa !15
  store i64 %3, ptr %8, align 8, !tbaa !15
  %9 = load ptr, ptr %5, align 8
  %10 = getelementptr inbounds nuw %"struct.c4::yml::LineCol", ptr %9, i32 0, i32 0
  %11 = load i64, ptr %6, align 8, !tbaa !15
  store i64 %11, ptr %10, align 8, !tbaa !80
  %12 = getelementptr inbounds nuw %"struct.c4::yml::LineCol", ptr %9, i32 0, i32 1
  %13 = load i64, ptr %7, align 8, !tbaa !15
  store i64 %13, ptr %12, align 8, !tbaa !78
  %14 = getelementptr inbounds nuw %"struct.c4::yml::LineCol", ptr %9, i32 0, i32 2
  %15 = load i64, ptr %8, align 8, !tbaa !15
  store i64 %15, ptr %14, align 8, !tbaa !79
  ret void
}

; Function Attrs: mustprogress uwtable
define void @_ZN2c43yml6Parser20_resize_filter_arenaEm(ptr noundef nonnull align 8 dereferenceable(2736) %0, i64 noundef %1) #1 align 2 {
  %3 = alloca ptr, align 8
  %4 = alloca i64, align 8
  %5 = alloca ptr, align 8
  %6 = alloca [39 x i8], align 16
  %7 = alloca %"struct.c4::yml::Location", align 8
  store ptr %0, ptr %3, align 8, !tbaa !218
  store i64 %1, ptr %4, align 8, !tbaa !15
  %8 = load ptr, ptr %3, align 8
  %9 = load i64, ptr %4, align 8, !tbaa !15
  %10 = getelementptr inbounds nuw %"class.c4::yml::Parser", ptr %8, i32 0, i32 18
  %11 = getelementptr inbounds nuw %"struct.c4::basic_substring", ptr %10, i32 0, i32 1
  %12 = load i64, ptr %11, align 8, !tbaa !229
  %13 = icmp ugt i64 %9, %12
  br i1 %13, label %14, label %79

14:                                               ; preds = %2
  call void @llvm.lifetime.start.p0(i64 8, ptr %5) #25
  %15 = getelementptr inbounds nuw %"class.c4::yml::Parser", ptr %8, i32 0, i32 18
  %16 = getelementptr inbounds nuw %"struct.c4::basic_substring", ptr %15, i32 0, i32 0
  %17 = load ptr, ptr %16, align 8, !tbaa !230
  store ptr %17, ptr %5, align 8, !tbaa !20
  %18 = getelementptr inbounds nuw %"class.c4::yml::Parser", ptr %8, i32 0, i32 18
  %19 = getelementptr inbounds nuw %"struct.c4::basic_substring", ptr %18, i32 0, i32 0
  %20 = load ptr, ptr %19, align 8, !tbaa !230
  %21 = icmp ne ptr %20, null
  br i1 %21, label %22, label %61

22:                                               ; preds = %14
  br label %23

23:                                               ; preds = %22
  %24 = getelementptr inbounds nuw %"class.c4::yml::Parser", ptr %8, i32 0, i32 18
  %25 = getelementptr inbounds nuw %"struct.c4::basic_substring", ptr %24, i32 0, i32 1
  %26 = load i64, ptr %25, align 8, !tbaa !229
  %27 = icmp ugt i64 %26, 0
  br i1 %27, label %38, label %28

28:                                               ; preds = %23
  call void @llvm.lifetime.start.p0(i64 39, ptr %6) #25
  call void @llvm.memcpy.p0.p0.i64(ptr align 16 %6, ptr align 16 @__const._ZN2c43yml6Parser20_resize_filter_arenaEm.msg, i64 39, i1 false)
  %29 = getelementptr inbounds nuw %"class.c4::yml::Parser", ptr %8, i32 0, i32 5
  %30 = getelementptr inbounds nuw %"class.c4::yml::detail::stack.5", ptr %29, i32 0, i32 4
  %31 = getelementptr inbounds nuw %"struct.c4::yml::Callbacks", ptr %30, i32 0, i32 3
  %32 = load ptr, ptr %31, align 8, !tbaa !254
  %33 = getelementptr inbounds [39 x i8], ptr %6, i64 0, i64 0
  call void @_ZN2c43yml8LocationC2EPKcmmm(ptr noundef nonnull align 8 dereferenceable(40) %7, ptr noundef @.str, i64 noundef 0, i64 noundef 32631, i64 noundef 0)
  %34 = getelementptr inbounds nuw %"class.c4::yml::Parser", ptr %8, i32 0, i32 5
  %35 = getelementptr inbounds nuw %"class.c4::yml::detail::stack.5", ptr %34, i32 0, i32 4
  %36 = getelementptr inbounds nuw %"struct.c4::yml::Callbacks", ptr %35, i32 0, i32 0
  %37 = load ptr, ptr %36, align 8, !tbaa !227
  call void %32(ptr noundef %33, i64 noundef 39, ptr noundef byval(%"struct.c4::yml::Location") align 8 %7, ptr noundef %37)
  call void @llvm.lifetime.end.p0(i64 39, ptr %6) #25
  br label %38

38:                                               ; preds = %28, %23
  br label %39

39:                                               ; preds = %38
  br label %40

40:                                               ; preds = %39
  br label %41

41:                                               ; preds = %40
  %42 = getelementptr inbounds nuw %"class.c4::yml::Parser", ptr %8, i32 0, i32 5
  %43 = getelementptr inbounds nuw %"class.c4::yml::detail::stack.5", ptr %42, i32 0, i32 4
  %44 = getelementptr inbounds nuw %"struct.c4::yml::Callbacks", ptr %43, i32 0, i32 2
  %45 = load ptr, ptr %44, align 8, !tbaa !225
  %46 = getelementptr inbounds nuw %"class.c4::yml::Parser", ptr %8, i32 0, i32 18
  %47 = getelementptr inbounds nuw %"struct.c4::basic_substring", ptr %46, i32 0, i32 0
  %48 = load ptr, ptr %47, align 8, !tbaa !230
  %49 = getelementptr inbounds nuw %"class.c4::yml::Parser", ptr %8, i32 0, i32 18
  %50 = getelementptr inbounds nuw %"struct.c4::basic_substring", ptr %49, i32 0, i32 1
  %51 = load i64, ptr %50, align 8, !tbaa !229
  %52 = mul i64 %51, 1
  %53 = getelementptr inbounds nuw %"class.c4::yml::Parser", ptr %8, i32 0, i32 5
  %54 = getelementptr inbounds nuw %"class.c4::yml::detail::stack.5", ptr %53, i32 0, i32 4
  %55 = getelementptr inbounds nuw %"struct.c4::yml::Callbacks", ptr %54, i32 0, i32 0
  %56 = load ptr, ptr %55, align 8, !tbaa !227
  call void %45(ptr noundef %48, i64 noundef %52, ptr noundef %56)
  %57 = getelementptr inbounds nuw %"class.c4::yml::Parser", ptr %8, i32 0, i32 18
  %58 = getelementptr inbounds nuw %"struct.c4::basic_substring", ptr %57, i32 0, i32 0
  store ptr null, ptr %58, align 8, !tbaa !230
  br label %59

59:                                               ; preds = %41
  br label %60

60:                                               ; preds = %59
  br label %61

61:                                               ; preds = %60, %14
  %62 = getelementptr inbounds nuw %"class.c4::yml::Parser", ptr %8, i32 0, i32 5
  %63 = getelementptr inbounds nuw %"class.c4::yml::detail::stack.5", ptr %62, i32 0, i32 4
  %64 = getelementptr inbounds nuw %"struct.c4::yml::Callbacks", ptr %63, i32 0, i32 1
  %65 = load ptr, ptr %64, align 8, !tbaa !255
  %66 = load i64, ptr %4, align 8, !tbaa !15
  %67 = mul i64 %66, 1
  %68 = load ptr, ptr %5, align 8, !tbaa !20
  %69 = getelementptr inbounds nuw %"class.c4::yml::Parser", ptr %8, i32 0, i32 5
  %70 = getelementptr inbounds nuw %"class.c4::yml::detail::stack.5", ptr %69, i32 0, i32 4
  %71 = getelementptr inbounds nuw %"struct.c4::yml::Callbacks", ptr %70, i32 0, i32 0
  %72 = load ptr, ptr %71, align 8, !tbaa !227
  %73 = call noundef ptr %65(i64 noundef %67, ptr noundef %68, ptr noundef %72)
  %74 = getelementptr inbounds nuw %"class.c4::yml::Parser", ptr %8, i32 0, i32 18
  %75 = getelementptr inbounds nuw %"struct.c4::basic_substring", ptr %74, i32 0, i32 0
  store ptr %73, ptr %75, align 8, !tbaa !230
  %76 = load i64, ptr %4, align 8, !tbaa !15
  %77 = getelementptr inbounds nuw %"class.c4::yml::Parser", ptr %8, i32 0, i32 18
  %78 = getelementptr inbounds nuw %"struct.c4::basic_substring", ptr %77, i32 0, i32 1
  store i64 %76, ptr %78, align 8, !tbaa !229
  call void @llvm.lifetime.end.p0(i64 8, ptr %5) #25
  br label %79

79:                                               ; preds = %61, %2
  ret void
}

; Function Attrs: mustprogress uwtable
define linkonce_odr void @_ZN2c43yml8LocationC2EPKcmmm(ptr noundef nonnull align 8 dereferenceable(40) %0, ptr noundef %1, i64 noundef %2, i64 noundef %3, i64 noundef %4) unnamed_addr #1 comdat align 2 {
  %6 = alloca ptr, align 8
  %7 = alloca ptr, align 8
  %8 = alloca i64, align 8
  %9 = alloca i64, align 8
  %10 = alloca i64, align 8
  store ptr %0, ptr %6, align 8, !tbaa !81
  store ptr %1, ptr %7, align 8, !tbaa !20
  store i64 %2, ptr %8, align 8, !tbaa !15
  store i64 %3, ptr %9, align 8, !tbaa !15
  store i64 %4, ptr %10, align 8, !tbaa !15
  %11 = load ptr, ptr %6, align 8
  %12 = load i64, ptr %8, align 8, !tbaa !15
  %13 = load i64, ptr %9, align 8, !tbaa !15
  %14 = load i64, ptr %10, align 8, !tbaa !15
  call void @_ZN2c43yml7LineColC2Emmm(ptr noundef nonnull align 8 dereferenceable(24) %11, i64 noundef %12, i64 noundef %13, i64 noundef %14)
  %15 = getelementptr inbounds nuw %"struct.c4::yml::Location", ptr %11, i32 0, i32 1
  %16 = load ptr, ptr %7, align 8, !tbaa !20
  %17 = call { ptr, i64 } @_ZN2c410to_csubstrEPKc(ptr noundef %16)
  %18 = getelementptr inbounds nuw { ptr, i64 }, ptr %15, i32 0, i32 0
  %19 = extractvalue { ptr, i64 } %17, 0
  store ptr %19, ptr %18, align 8
  %20 = getelementptr inbounds nuw { ptr, i64 }, ptr %15, i32 0, i32 1
  %21 = extractvalue { ptr, i64 } %17, 1
  store i64 %21, ptr %20, align 8
  ret void
}

; Function Attrs: mustprogress uwtable
define void @_ZN2c43yml6Parser18_grow_filter_arenaEm(ptr noundef nonnull align 8 dereferenceable(2736) %0, i64 noundef %1) #1 align 2 {
  %3 = alloca ptr, align 8
  %4 = alloca i64, align 8
  %5 = alloca i64, align 8
  %6 = alloca [44 x i8], align 16
  %7 = alloca %"struct.c4::yml::Location", align 8
  store ptr %0, ptr %3, align 8, !tbaa !218
  store i64 %1, ptr %4, align 8, !tbaa !15
  %8 = load ptr, ptr %3, align 8
  %9 = load i64, ptr %4, align 8, !tbaa !15
  %10 = getelementptr inbounds nuw %"class.c4::yml::Parser", ptr %8, i32 0, i32 18
  %11 = getelementptr inbounds nuw %"struct.c4::basic_substring", ptr %10, i32 0, i32 1
  %12 = load i64, ptr %11, align 8, !tbaa !229
  %13 = icmp ule i64 %9, %12
  br i1 %13, label %14, label %15

14:                                               ; preds = %2
  br label %54

15:                                               ; preds = %2
  call void @llvm.lifetime.start.p0(i64 8, ptr %5) #25
  %16 = getelementptr inbounds nuw %"class.c4::yml::Parser", ptr %8, i32 0, i32 18
  %17 = getelementptr inbounds nuw %"struct.c4::basic_substring", ptr %16, i32 0, i32 1
  %18 = load i64, ptr %17, align 8, !tbaa !229
  %19 = shl i64 %18, 1
  store i64 %19, ptr %5, align 8, !tbaa !15
  %20 = load i64, ptr %4, align 8, !tbaa !15
  %21 = load i64, ptr %5, align 8, !tbaa !15
  %22 = icmp ugt i64 %20, %21
  br i1 %22, label %23, label %25

23:                                               ; preds = %15
  %24 = load i64, ptr %4, align 8, !tbaa !15
  br label %27

25:                                               ; preds = %15
  %26 = load i64, ptr %5, align 8, !tbaa !15
  br label %27

27:                                               ; preds = %25, %23
  %28 = phi i64 [ %24, %23 ], [ %26, %25 ]
  store i64 %28, ptr %5, align 8, !tbaa !15
  %29 = load i64, ptr %5, align 8, !tbaa !15
  %30 = icmp ult i64 %29, 128
  br i1 %30, label %31, label %32

31:                                               ; preds = %27
  br label %34

32:                                               ; preds = %27
  %33 = load i64, ptr %5, align 8, !tbaa !15
  br label %34

34:                                               ; preds = %32, %31
  %35 = phi i64 [ 128, %31 ], [ %33, %32 ]
  store i64 %35, ptr %5, align 8, !tbaa !15
  br label %36

36:                                               ; preds = %34
  %37 = load i64, ptr %5, align 8, !tbaa !15
  %38 = load i64, ptr %4, align 8, !tbaa !15
  %39 = icmp uge i64 %37, %38
  br i1 %39, label %50, label %40

40:                                               ; preds = %36
  call void @llvm.lifetime.start.p0(i64 44, ptr %6) #25
  call void @llvm.memcpy.p0.p0.i64(ptr align 16 %6, ptr align 16 @__const._ZN2c43yml6Parser18_grow_filter_arenaEm.msg, i64 44, i1 false)
  %41 = getelementptr inbounds nuw %"class.c4::yml::Parser", ptr %8, i32 0, i32 5
  %42 = getelementptr inbounds nuw %"class.c4::yml::detail::stack.5", ptr %41, i32 0, i32 4
  %43 = getelementptr inbounds nuw %"struct.c4::yml::Callbacks", ptr %42, i32 0, i32 3
  %44 = load ptr, ptr %43, align 8, !tbaa !254
  %45 = getelementptr inbounds [44 x i8], ptr %6, i64 0, i64 0
  call void @_ZN2c43yml8LocationC2EPKcmmm(ptr noundef nonnull align 8 dereferenceable(40) %7, ptr noundef @.str, i64 noundef 0, i64 noundef 32619, i64 noundef 0)
  %46 = getelementptr inbounds nuw %"class.c4::yml::Parser", ptr %8, i32 0, i32 5
  %47 = getelementptr inbounds nuw %"class.c4::yml::detail::stack.5", ptr %46, i32 0, i32 4
  %48 = getelementptr inbounds nuw %"struct.c4::yml::Callbacks", ptr %47, i32 0, i32 0
  %49 = load ptr, ptr %48, align 8, !tbaa !227
  call void %44(ptr noundef %45, i64 noundef 44, ptr noundef byval(%"struct.c4::yml::Location") align 8 %7, ptr noundef %49)
  call void @llvm.lifetime.end.p0(i64 44, ptr %6) #25
  br label %50

50:                                               ; preds = %40, %36
  br label %51

51:                                               ; preds = %50
  br label %52

52:                                               ; preds = %51
  %53 = load i64, ptr %5, align 8, !tbaa !15
  call void @_ZN2c43yml6Parser20_resize_filter_arenaEm(ptr noundef nonnull align 8 dereferenceable(2736) %8, i64 noundef %53)
  call void @llvm.lifetime.end.p0(i64 8, ptr %5) #25
  br label %54

54:                                               ; preds = %52, %14
  ret void
}