; Function Attrs: mustprogress uwtable
define void @_ZN2c43yml6Parser18_grow_filter_arenaEm(ptr noundef nonnull align 8 captures(none) dereferenceable(2736) %0, i64 noundef %1) local_unnamed_addr #1 align 2 {
  %3 = alloca [39 x i8], align 16
  %4 = alloca %"struct.c4::yml::Location", align 8
  %5 = getelementptr inbounds nuw i8, ptr %0, i64 2688
  %6 = load i64, ptr %5, align 8, !tbaa !244
  %.not = icmp ugt i64 %1, %6
  br i1 %.not, label %7, label %35

7:                                                ; preds = %2
  %8 = shl i64 %6, 1
  %9 = tail call i64 @llvm.umax.i64(i64 %1, i64 %8)
  %10 = tail call i64 @llvm.umax.i64(i64 %9, i64 128)
  call void @llvm.lifetime.start.p0(i64 40, ptr nonnull %4)
  %11 = getelementptr inbounds nuw i8, ptr %0, i64 2680
  %12 = load ptr, ptr %11, align 8, !tbaa !245
  %.not.i = icmp eq ptr %12, null
  br i1 %.not.i, label %_ZN2c43yml6Parser20_resize_filter_arenaEm.exit, label %13

13:                                               ; preds = %7
  %.not5.i = icmp eq i64 %6, 0
  br i1 %.not5.i, label %14, label %23

14:                                               ; preds = %13
  call void @llvm.lifetime.start.p0(i64 39, ptr nonnull %3) #39
  call void @llvm.memcpy.p0.p0.i64(ptr noundef nonnull align 16 dereferenceable(39) %3, ptr noundef nonnull align 16 dereferenceable(39) @__const._ZN2c43yml6Parser20_resize_filter_arenaEm.msg, i64 39, i1 false)
  %15 = getelementptr inbounds nuw i8, ptr %0, i64 2512
  %16 = getelementptr inbounds nuw i8, ptr %0, i64 2536
  %17 = load ptr, ptr %16, align 8, !tbaa !273
  store i64 0, ptr %4, align 8, !tbaa !103
  %18 = getelementptr inbounds nuw i8, ptr %4, i64 8
  store i64 32631, ptr %18, align 8, !tbaa !104
  %19 = getelementptr inbounds nuw i8, ptr %4, i64 16
  store i64 0, ptr %19, align 8, !tbaa !58
  %20 = getelementptr inbounds nuw i8, ptr %4, i64 24
  store ptr @.str, ptr %20, align 8
  %21 = getelementptr inbounds nuw i8, ptr %4, i64 32
  store i64 127, ptr %21, align 8
  %22 = load ptr, ptr %15, align 8, !tbaa !243
  call void %17(ptr noundef nonnull %3, i64 noundef 39, ptr noundef nonnull byval(%"struct.c4::yml::Location") align 8 %4, ptr noundef %22)
  call void @llvm.lifetime.end.p0(i64 39, ptr nonnull %3) #39
  %.pre.i = load ptr, ptr %11, align 8, !tbaa !245
  %.pre6.i = load i64, ptr %5, align 8, !tbaa !244
  br label %23

23:                                               ; preds = %14, %13
  %24 = phi i64 [ %6, %13 ], [ %.pre6.i, %14 ]
  %25 = phi ptr [ %12, %13 ], [ %.pre.i, %14 ]
  %26 = getelementptr inbounds nuw i8, ptr %0, i64 2512
  %27 = getelementptr inbounds nuw i8, ptr %0, i64 2528
  %28 = load ptr, ptr %27, align 8, !tbaa !241
  %29 = load ptr, ptr %26, align 8, !tbaa !243
  call void %28(ptr noundef %25, i64 noundef %24, ptr noundef %29)
  store ptr null, ptr %11, align 8, !tbaa !245
  br label %_ZN2c43yml6Parser20_resize_filter_arenaEm.exit

_ZN2c43yml6Parser20_resize_filter_arenaEm.exit:   ; preds = %23, %7
  %30 = getelementptr inbounds nuw i8, ptr %0, i64 2512
  %31 = getelementptr inbounds nuw i8, ptr %0, i64 2520
  %32 = load ptr, ptr %31, align 8, !tbaa !272
  %33 = load ptr, ptr %30, align 8, !tbaa !243
  %34 = call noundef ptr %32(i64 noundef %10, ptr noundef %12, ptr noundef %33)
  store ptr %34, ptr %11, align 8, !tbaa !245
  store i64 %10, ptr %5, align 8, !tbaa !244
  call void @llvm.lifetime.end.p0(i64 40, ptr nonnull %4)
  br label %35

35:                                               ; preds = %2, %_ZN2c43yml6Parser20_resize_filter_arenaEm.exit
  ret void
}